Certificate:
    Data:
        Version: 3 (0x2)
        Serial Number: 2 (0x2)
    Signature Algorithm: sha256WithRSAEncryption
        Issuer: C=FR, ST=Normandie, L=Rouen, O=chronofree, OU=ChronoFree, CN=chronofree CA/name=Greg/emailAddress=gregory.brancq@free.fr
        Validity
            Not Before: May 19 16:58:06 2015 GMT
            Not After : May 16 16:58:06 2025 GMT
        Subject: C=FR, ST=Normandie, L=Rouen, O=chronofree, OU=ChronoFree, CN=greg/name=Greg/emailAddress=gregory.brancq@free.fr
        Subject Public Key Info:
            Public Key Algorithm: rsaEncryption
                Public-Key: (2048 bit)
                Modulus:
                    00:b7:04:70:9c:7f:a5:4c:04:d8:8e:28:f7:c9:83:
                    05:96:b8:f8:31:65:46:b2:18:0e:72:85:80:e8:0f:
                    47:78:47:74:45:53:f8:80:64:05:6b:ea:7b:33:e5:
                    99:4b:a4:5f:4a:f9:4c:27:08:50:d9:b4:c3:73:8f:
                    5d:c5:7f:62:0d:59:e5:05:18:db:cc:40:e6:67:9c:
                    e0:ad:e3:70:28:94:dd:74:f9:4d:6e:ba:b2:72:b0:
                    b9:3f:e6:cf:ad:e1:6b:08:14:59:5c:53:2a:03:b6:
                    b8:aa:bc:3c:0a:0c:97:24:59:40:7a:4c:ca:b9:45:
                    f0:ea:99:19:2e:63:3d:93:ca:77:04:5c:53:62:2e:
                    83:15:fe:70:cd:17:12:7d:11:9b:8a:06:52:e7:16:
                    e7:3d:fa:4d:2b:77:cc:91:e8:4c:d1:1c:67:ed:2e:
                    17:d8:3b:c4:ba:8d:12:d3:de:59:a1:12:a9:23:79:
                    c5:d5:59:0b:4b:68:09:a0:7e:e4:b9:71:7f:bf:44:
                    f4:5b:82:95:10:1b:fa:c2:2d:eb:46:81:33:a5:b7:
                    10:4c:83:ba:0d:63:ea:e5:c0:a5:87:a7:c9:ce:aa:
                    4a:ef:7c:c2:04:ba:a1:a1:4c:60:42:93:54:fd:24:
                    de:69:bd:f0:fb:5c:a4:46:65:d4:b7:ea:a9:16:c4:
                    e0:0b
                Exponent: 65537 (0x10001)
        X509v3 extensions:
            X509v3 Basic Constraints: 
                CA:FALSE
            Netscape Comment: 
                Easy-RSA Generated Certificate
            X509v3 Subject Key Identifier: 
                0B:87:BD:CD:BC:F1:54:1A:25:89:7A:85:95:87:CC:97:C6:04:51:9D
            X509v3 Authority Key Identifier: 
                keyid:9A:73:B9:5B:82:41:CE:C2:A9:BB:A7:E3:48:A7:5F:FD:1D:7E:97:68
                DirName:/C=FR/ST=Normandie/L=Rouen/O=chronofree/OU=ChronoFree/CN=chronofree CA/name=Greg/emailAddress=gregory.brancq@free.fr
                serial:8A:2A:A7:77:9E:E0:0A:37

            X509v3 Extended Key Usage: 
                TLS Web Client Authentication
            X509v3 Key Usage: 
                Digital Signature
            X509v3 Subject Alternative Name: 
                DNS:greg
    Signature Algorithm: sha256WithRSAEncryption
         31:81:5f:f7:74:d6:b8:1b:c2:cc:40:f4:2b:05:e1:40:ac:cb:
         16:a1:89:29:c6:00:34:ff:68:c0:4e:dc:5c:e1:42:86:0c:09:
         cd:91:b8:1f:6a:d1:0f:7a:1b:5f:02:e3:e3:4c:ef:45:fb:86:
         31:50:12:92:7a:17:65:90:79:38:0f:8b:55:dd:28:8c:d6:87:
         7d:02:06:c4:83:44:44:32:0c:c9:93:83:db:8b:52:f4:af:8a:
         e4:2d:57:0e:4b:10:8d:e9:7d:8a:5d:9d:d5:28:5c:e6:3d:ca:
         a1:78:1d:a5:3f:9a:15:28:3e:cc:19:80:f8:11:e4:90:e1:90:
         7d:c9:25:ed:27:f7:36:04:8f:f0:e8:ff:0d:c4:db:8d:2c:36:
         ed:85:7a:6a:81:3b:b3:42:30:f8:50:85:73:1b:62:58:6e:99:
         95:a8:3e:02:96:01:aa:a7:2e:a2:81:b3:b8:98:b5:81:47:b2:
         f6:1b:79:70:43:42:55:c8:ae:cc:67:5e:60:06:17:41:4f:7e:
         18:1b:d6:6b:f2:a1:5f:46:0c:49:39:10:d9:15:57:1a:17:16:
         b6:61:ac:04:09:a4:c4:b8:39:f7:0f:7a:c5:bc:0d:5b:ce:29:
         2b:1d:92:89:08:d1:e1:09:59:79:64:89:71:fa:e9:d2:fe:1e:
         53:22:41:76
-----BEGIN CERTIFICATE-----
MIIFOTCCBCGgAwIBAgIBAjANBgkqhkiG9w0BAQsFADCBqTELMAkGA1UEBhMCRlIx
EjAQBgNVBAgTCU5vcm1hbmRpZTEOMAwGA1UEBxMFUm91ZW4xEzARBgNVBAoTCmNo
cm9ub2ZyZWUxEzARBgNVBAsTCkNocm9ub0ZyZWUxFjAUBgNVBAMTDWNocm9ub2Zy
ZWUgQ0ExDTALBgNVBCkTBEdyZWcxJTAjBgkqhkiG9w0BCQEWFmdyZWdvcnkuYnJh
bmNxQGZyZWUuZnIwHhcNMTUwNTE5MTY1ODA2WhcNMjUwNTE2MTY1ODA2WjCBoDEL
MAkGA1UEBhMCRlIxEjAQBgNVBAgTCU5vcm1hbmRpZTEOMAwGA1UEBxMFUm91ZW4x
EzARBgNVBAoTCmNocm9ub2ZyZWUxEzARBgNVBAsTCkNocm9ub0ZyZWUxDTALBgNV
BAMTBGdyZWcxDTALBgNVBCkTBEdyZWcxJTAjBgkqhkiG9w0BCQEWFmdyZWdvcnku
YnJhbmNxQGZyZWUuZnIwggEiMA0GCSqGSIb3DQEBAQUAA4IBDwAwggEKAoIBAQC3
BHCcf6VMBNiOKPfJgwWWuPgxZUayGA5yhYDoD0d4R3RFU/iAZAVr6nsz5ZlLpF9K
+UwnCFDZtMNzj13Ff2INWeUFGNvMQOZnnOCt43AolN10+U1uurJysLk/5s+t4WsI
FFlcUyoDtriqvDwKDJckWUB6TMq5RfDqmRkuYz2TyncEXFNiLoMV/nDNFxJ9EZuK
BlLnFuc9+k0rd8yR6EzRHGftLhfYO8S6jRLT3lmhEqkjecXVWQtLaAmgfuS5cX+/
RPRbgpUQG/rCLetGgTOltxBMg7oNY+rlwKWHp8nOqkrvfMIEuqGhTGBCk1T9JN5p
vfD7XKRGZdS36qkWxOALAgMBAAGjggFxMIIBbTAJBgNVHRMEAjAAMC0GCWCGSAGG
+EIBDQQgFh5FYXN5LVJTQSBHZW5lcmF0ZWQgQ2VydGlmaWNhdGUwHQYDVR0OBBYE
FAuHvc288VQaJYl6hZWHzJfGBFGdMIHeBgNVHSMEgdYwgdOAFJpzuVuCQc7Cqbun
40inX/0dfpdooYGvpIGsMIGpMQswCQYDVQQGEwJGUjESMBAGA1UECBMJTm9ybWFu
ZGllMQ4wDAYDVQQHEwVSb3VlbjETMBEGA1UEChMKY2hyb25vZnJlZTETMBEGA1UE
CxMKQ2hyb25vRnJlZTEWMBQGA1UEAxMNY2hyb25vZnJlZSBDQTENMAsGA1UEKRME
R3JlZzElMCMGCSqGSIb3DQEJARYWZ3JlZ29yeS5icmFuY3FAZnJlZS5mcoIJAIoq
p3ee4Ao3MBMGA1UdJQQMMAoGCCsGAQUFBwMCMAsGA1UdDwQEAwIHgDAPBgNVHREE
CDAGggRncmVnMA0GCSqGSIb3DQEBCwUAA4IBAQAxgV/3dNa4G8LMQPQrBeFArMsW
oYkpxgA0/2jATtxc4UKGDAnNkbgfatEPehtfAuPjTO9F+4YxUBKSehdlkHk4D4tV
3SiM1od9AgbEg0REMgzJk4Pbi1L0r4rkLVcOSxCN6X2KXZ3VKFzmPcqheB2lP5oV
KD7MGYD4EeSQ4ZB9ySXtJ/c2BI/w6P8NxNuNLDbthXpqgTuzQjD4UIVzG2JYbpmV
qD4ClgGqpy6igbO4mLWBR7L2G3lwQ0JVyK7MZ15gBhdBT34YG9Zr8qFfRgxJORDZ
FVcaFxa2YawECaTEuDn3D3rFvA1bzikrHZKJCNHhCVl5ZIlx+unS/h5TIkF2
-----END CERTIFICATE-----
