Certificate:
    Data:
        Version: 3 (0x2)
        Serial Number: 19 (0x13)
        Signature Algorithm: sha1WithRSAEncryption
        Issuer: C=FR, ST=Ile-de-France, L=Paris, O=SEQUANS Communications, CN=vpn-rd-ca/emailAddress=admin@sequans.com
        Validity
            Not Before: Jun 17 11:13:52 2010 GMT
            Not After : Jun 14 11:13:52 2020 GMT
        Subject: C=FR, ST=Ile-de-France, L=Paris, O=SEQUANS Communications, CN=gregory.brancq/emailAddress=gregory@sequans.com
        Subject Public Key Info:
            Public Key Algorithm: rsaEncryption
            RSA Public Key: (2048 bit)
                Modulus (2048 bit):
                    00:9d:7a:32:65:7a:78:0c:7f:07:f5:b5:52:b6:6c:
                    e3:b8:50:be:bf:33:bd:48:34:96:9e:45:a8:bc:e5:
                    02:92:50:a4:79:dc:12:2b:47:96:45:83:f6:c6:ef:
                    e3:f6:45:c2:1b:4b:9f:87:63:bc:c0:88:36:ca:e0:
                    aa:73:aa:77:ec:85:15:73:c5:62:c7:2f:ff:18:2a:
                    5e:58:0f:d9:8b:28:a4:24:69:88:be:97:01:15:e3:
                    7d:73:47:dc:93:c1:49:df:31:c1:f5:fd:b5:b4:3d:
                    35:a0:70:8b:5b:ab:00:d0:fe:cc:f4:77:77:df:fa:
                    a2:85:82:4c:05:94:8f:b8:55:6b:83:6f:4a:68:a6:
                    b2:10:2f:7a:be:ac:4f:cd:e9:de:d3:22:f0:91:b2:
                    13:aa:e4:ec:f4:96:e1:83:b6:0f:ec:c6:6c:46:00:
                    e1:bb:5a:25:af:da:78:db:ce:4d:86:fd:6a:13:f9:
                    99:86:d2:fc:9f:41:b8:da:33:2c:95:f6:56:43:62:
                    ef:e8:56:c7:2a:fa:b8:b5:6d:92:d5:ea:95:f5:2e:
                    b4:f7:19:7f:1d:90:d5:0a:5d:20:17:ad:b1:aa:e1:
                    94:fa:4e:b5:86:4e:ff:8e:90:71:96:de:af:12:27:
                    fe:b0:ca:fc:90:58:e1:36:92:5f:36:2a:5a:a1:12:
                    42:83
                Exponent: 65537 (0x10001)
        X509v3 extensions:
            X509v3 Basic Constraints: 
                CA:FALSE
            Netscape Comment: 
                Easy-RSA Generated Certificate
            X509v3 Subject Key Identifier: 
                52:0B:70:7B:73:EE:8E:1A:32:56:EA:E8:5C:22:78:91:2C:07:28:6C
            X509v3 Authority Key Identifier: 
                keyid:91:59:00:DC:13:50:29:AC:3F:9C:19:7D:24:5E:DA:42:26:B7:58:26
                DirName:/C=FR/ST=Ile-de-France/L=Paris/O=SEQUANS Communications/OU=IT/CN=SEQUANS Communications CA/emailAddress=admin@sequans.com
                serial:18

            X509v3 Extended Key Usage: 
                TLS Web Client Authentication
            X509v3 Key Usage: 
                Digital Signature
    Signature Algorithm: sha1WithRSAEncryption
        22:b3:51:19:82:bc:5d:2f:e3:7f:bc:cb:c9:30:67:f7:f6:78:
        cc:c1:97:8b:dd:0c:f2:70:15:42:08:65:d9:95:38:c3:29:ff:
        8c:3e:75:4b:b8:f2:42:eb:0d:de:6a:f4:74:6b:b5:22:e1:a0:
        34:e5:7e:41:b1:b8:a4:68:86:70:84:2c:a2:71:83:f1:f6:fd:
        ad:50:ca:11:6d:ed:14:d7:3a:cc:93:fb:42:90:7c:dd:60:01:
        fd:7d:fa:64:99:74:bf:56:d7:a1:25:cc:76:84:6c:12:f1:2d:
        d9:6d:ec:6b:ce:7b:f1:75:48:d7:4b:43:1f:6a:e2:15:6b:9a:
        ab:30:70:23:12:85:fc:49:83:95:ec:46:23:54:c3:d8:e4:81:
        4e:50:cd:0f:5b:1b:a2:c1:ee:95:26:35:a0:3c:01:90:0e:bf:
        b7:41:bd:61:de:db:55:bd:52:28:69:ca:38:76:d4:e8:ff:19:
        cc:68:53:c5:f8:53:e1:3a:ea:9d:7b:12:ec:e4:89:7b:0c:07:
        99:08:6c:10:a2:dc:82:e7:37:80:78:a2:e2:0d:38:e8:78:b2:
        6f:80:f2:d1:34:29:79:8a:9c:26:45:69:8a:96:8f:03:76:f4:
        f1:10:51:6c:6f:ad:4e:35:00:69:39:b3:50:8c:26:60:5a:6d:
        9a:74:7d:6d
-----BEGIN CERTIFICATE-----
MIIE9jCCA96gAwIBAgIBEzANBgkqhkiG9w0BAQUFADCBjDELMAkGA1UEBhMCRlIx
FjAUBgNVBAgTDUlsZS1kZS1GcmFuY2UxDjAMBgNVBAcTBVBhcmlzMR8wHQYDVQQK
ExZTRVFVQU5TIENvbW11bmljYXRpb25zMRIwEAYDVQQDEwl2cG4tcmQtY2ExIDAe
BgkqhkiG9w0BCQEWEWFkbWluQHNlcXVhbnMuY29tMB4XDTEwMDYxNzExMTM1MloX
DTIwMDYxNDExMTM1MlowgZMxCzAJBgNVBAYTAkZSMRYwFAYDVQQIEw1JbGUtZGUt
RnJhbmNlMQ4wDAYDVQQHEwVQYXJpczEfMB0GA1UEChMWU0VRVUFOUyBDb21tdW5p
Y2F0aW9uczEXMBUGA1UEAxMOZ3JlZ29yeS5icmFuY3ExIjAgBgkqhkiG9w0BCQEW
E2dyZWdvcnlAc2VxdWFucy5jb20wggEiMA0GCSqGSIb3DQEBAQUAA4IBDwAwggEK
AoIBAQCdejJlengMfwf1tVK2bOO4UL6/M71INJaeRai85QKSUKR53BIrR5ZFg/bG
7+P2RcIbS5+HY7zAiDbK4KpzqnfshRVzxWLHL/8YKl5YD9mLKKQkaYi+lwEV431z
R9yTwUnfMcH1/bW0PTWgcItbqwDQ/sz0d3ff+qKFgkwFlI+4VWuDb0poprIQL3q+
rE/N6d7TIvCRshOq5Oz0luGDtg/sxmxGAOG7WiWv2njbzk2G/WoT+ZmG0vyfQbja
MyyV9lZDYu/oVscq+ri1bZLV6pX1LrT3GX8dkNUKXSAXrbGq4ZT6TrWGTv+OkHGW
3q8SJ/6wyvyQWOE2kl82KlqhEkKDAgMBAAGjggFYMIIBVDAJBgNVHRMEAjAAMC0G
CWCGSAGG+EIBDQQgFh5FYXN5LVJTQSBHZW5lcmF0ZWQgQ2VydGlmaWNhdGUwHQYD
VR0OBBYEFFILcHtz7o4aMlbq6FwieJEsByhsMIHWBgNVHSMEgc4wgcuAFJFZANwT
UCmsP5wZfSRe2kImt1gmoYGvpIGsMIGpMQswCQYDVQQGEwJGUjEWMBQGA1UECBMN
SWxlLWRlLUZyYW5jZTEOMAwGA1UEBxMFUGFyaXMxHzAdBgNVBAoTFlNFUVVBTlMg
Q29tbXVuaWNhdGlvbnMxCzAJBgNVBAsTAklUMSIwIAYDVQQDExlTRVFVQU5TIENv
bW11bmljYXRpb25zIENBMSAwHgYJKoZIhvcNAQkBFhFhZG1pbkBzZXF1YW5zLmNv
bYIBGDATBgNVHSUEDDAKBggrBgEFBQcDAjALBgNVHQ8EBAMCB4AwDQYJKoZIhvcN
AQEFBQADggEBACKzURmCvF0v43+8y8kwZ/f2eMzBl4vdDPJwFUIIZdmVOMMp/4w+
dUu48kLrDd5q9HRrtSLhoDTlfkGxuKRohnCELKJxg/H2/a1QyhFt7RTXOsyT+0KQ
fN1gAf19+mSZdL9W16ElzHaEbBLxLdlt7GvOe/F1SNdLQx9q4hVrmqswcCMShfxJ
g5XsRiNUw9jkgU5QzQ9bG6LB7pUmNaA8AZAOv7dBvWHe21W9Uihpyjh21Oj/Gcxo
U8X4U+E66p17EuzkiXsMB5kIbBCi3ILnN4B4ouINOOh4sm+A8tE0KXmKnCZFaYqW
jwN29PEQUWxvrU41AGk5s1CMJmBabZp0fW0=
-----END CERTIFICATE-----
