Certificate:
    Data:
        Version: 3 (0x2)
        Serial Number: 1 (0x1)
    Signature Algorithm: sha256WithRSAEncryption
        Issuer: C=FR, ST=Normandie, L=Rouen, O=chronofree, OU=ChronoFree, CN=chronofree CA/name=Greg/emailAddress=gregory.brancq@free.fr
        Validity
            Not Before: May 19 16:55:57 2015 GMT
            Not After : May 16 16:55:57 2025 GMT
        Subject: C=FR, ST=Normandie, L=Rouen, O=chronofree, OU=ChronoFree, CN=VPN_Home/name=Greg/emailAddress=gregory.brancq@free.fr
        Subject Public Key Info:
            Public Key Algorithm: rsaEncryption
                Public-Key: (2048 bit)
                Modulus:
                    00:e5:3f:58:2c:87:39:fc:45:64:01:5e:18:ce:17:
                    c5:db:d2:f7:d3:af:13:fa:8a:91:df:f4:36:ac:27:
                    28:6c:21:f8:00:27:e0:e1:e5:c7:38:a9:ba:9f:3f:
                    e3:a4:62:52:5a:73:55:52:35:5f:c6:2c:13:82:43:
                    8a:d6:e6:1b:df:57:3c:31:a1:56:63:8b:67:56:d6:
                    fe:ab:57:2c:31:e5:29:bc:eb:53:3a:67:e0:9c:35:
                    6c:a8:66:5a:68:55:a0:90:9e:17:dd:2a:67:29:e3:
                    a4:b1:43:9f:37:fa:fc:fc:6c:85:e5:2f:ca:ce:5b:
                    6c:8e:2b:30:26:38:27:cc:c7:9b:00:a3:6e:3d:e6:
                    e3:6e:b7:ba:90:2d:07:5d:c7:49:82:67:87:ee:ba:
                    2b:48:21:85:66:32:20:93:b2:0d:17:37:6c:30:47:
                    85:06:f0:ba:cc:24:74:23:87:3d:d3:25:5b:49:9e:
                    49:c3:18:a5:f3:ff:b1:25:f2:2a:65:d9:81:94:45:
                    7c:18:b6:ff:b7:94:41:b1:c7:6b:24:de:0c:5c:df:
                    05:cb:e1:2f:3d:6e:55:9c:3e:76:00:bc:21:70:d8:
                    94:b6:ca:d4:e9:41:a6:08:57:67:bb:9b:6a:45:2b:
                    97:f5:f8:15:a2:5e:45:cb:f5:5d:c3:f1:d1:22:04:
                    0f:57
                Exponent: 65537 (0x10001)
        X509v3 extensions:
            X509v3 Basic Constraints: 
                CA:FALSE
            Netscape Cert Type: 
                SSL Server
            Netscape Comment: 
                Easy-RSA Generated Server Certificate
            X509v3 Subject Key Identifier: 
                CE:EE:91:B2:52:47:E4:EB:85:2D:5E:92:CC:9C:22:C9:3B:3A:EE:5A
            X509v3 Authority Key Identifier: 
                keyid:9A:73:B9:5B:82:41:CE:C2:A9:BB:A7:E3:48:A7:5F:FD:1D:7E:97:68
                DirName:/C=FR/ST=Normandie/L=Rouen/O=chronofree/OU=ChronoFree/CN=chronofree CA/name=Greg/emailAddress=gregory.brancq@free.fr
                serial:8A:2A:A7:77:9E:E0:0A:37

            X509v3 Extended Key Usage: 
                TLS Web Server Authentication
            X509v3 Key Usage: 
                Digital Signature, Key Encipherment
            X509v3 Subject Alternative Name: 
                DNS:VPN_Home
    Signature Algorithm: sha256WithRSAEncryption
         6c:34:b6:39:45:bb:c5:20:9a:23:b8:ac:75:1e:88:14:9b:c1:
         ae:c3:71:2d:d7:83:6c:f1:f6:96:0a:e8:71:4a:70:fe:2f:22:
         ea:24:1f:3b:03:69:40:14:4d:e6:f2:74:71:4a:d0:0c:14:d7:
         e6:3c:1d:bc:a7:fc:8c:28:fa:39:72:1c:65:24:c2:49:13:70:
         01:86:5d:fe:11:a6:21:fd:9e:96:f8:95:6b:5c:7a:b1:eb:84:
         53:f3:c6:87:79:d5:ef:39:bb:7f:54:ff:21:d2:9b:fb:ac:88:
         57:2b:f8:96:30:d4:db:be:27:95:f0:b3:24:a9:91:f6:49:2b:
         20:1a:4b:d8:30:a5:55:fb:ca:d3:93:31:fd:08:f3:8a:ec:60:
         4a:d2:80:23:5d:94:e4:22:39:66:9f:87:b5:31:6b:3c:fb:c6:
         0b:78:3e:a3:5c:42:ee:52:35:e1:37:5e:d6:81:30:e6:c0:6b:
         f1:1b:d2:30:8a:9f:9b:5a:7e:a1:8b:a1:ca:1a:79:2e:66:ab:
         5f:20:52:0a:57:4c:4c:7e:b3:e7:d2:d0:ea:71:d6:2c:2f:08:
         29:c7:4d:16:b5:9b:5e:5f:9c:db:78:53:30:13:03:9f:2f:fe:
         06:25:ec:52:ed:ee:5e:91:dc:53:5d:24:21:aa:62:9e:3d:a0:
         14:67:16:cd
-----BEGIN CERTIFICATE-----
MIIFWzCCBEOgAwIBAgIBATANBgkqhkiG9w0BAQsFADCBqTELMAkGA1UEBhMCRlIx
EjAQBgNVBAgTCU5vcm1hbmRpZTEOMAwGA1UEBxMFUm91ZW4xEzARBgNVBAoTCmNo
cm9ub2ZyZWUxEzARBgNVBAsTCkNocm9ub0ZyZWUxFjAUBgNVBAMTDWNocm9ub2Zy
ZWUgQ0ExDTALBgNVBCkTBEdyZWcxJTAjBgkqhkiG9w0BCQEWFmdyZWdvcnkuYnJh
bmNxQGZyZWUuZnIwHhcNMTUwNTE5MTY1NTU3WhcNMjUwNTE2MTY1NTU3WjCBpDEL
MAkGA1UEBhMCRlIxEjAQBgNVBAgTCU5vcm1hbmRpZTEOMAwGA1UEBxMFUm91ZW4x
EzARBgNVBAoTCmNocm9ub2ZyZWUxEzARBgNVBAsTCkNocm9ub0ZyZWUxETAPBgNV
BAMUCFZQTl9Ib21lMQ0wCwYDVQQpEwRHcmVnMSUwIwYJKoZIhvcNAQkBFhZncmVn
b3J5LmJyYW5jcUBmcmVlLmZyMIIBIjANBgkqhkiG9w0BAQEFAAOCAQ8AMIIBCgKC
AQEA5T9YLIc5/EVkAV4YzhfF29L3068T+oqR3/Q2rCcobCH4ACfg4eXHOKm6nz/j
pGJSWnNVUjVfxiwTgkOK1uYb31c8MaFWY4tnVtb+q1csMeUpvOtTOmfgnDVsqGZa
aFWgkJ4X3SpnKeOksUOfN/r8/GyF5S/KzltsjiswJjgnzMebAKNuPebjbre6kC0H
XcdJgmeH7rorSCGFZjIgk7INFzdsMEeFBvC6zCR0I4c90yVbSZ5Jwxil8/+xJfIq
ZdmBlEV8GLb/t5RBscdrJN4MXN8Fy+EvPW5VnD52ALwhcNiUtsrU6UGmCFdnu5tq
RSuX9fgVol5Fy/Vdw/HRIgQPVwIDAQABo4IBjzCCAYswCQYDVR0TBAIwADARBglg
hkgBhvhCAQEEBAMCBkAwNAYJYIZIAYb4QgENBCcWJUVhc3ktUlNBIEdlbmVyYXRl
ZCBTZXJ2ZXIgQ2VydGlmaWNhdGUwHQYDVR0OBBYEFM7ukbJSR+TrhS1eksycIsk7
Ou5aMIHeBgNVHSMEgdYwgdOAFJpzuVuCQc7Cqbun40inX/0dfpdooYGvpIGsMIGp
MQswCQYDVQQGEwJGUjESMBAGA1UECBMJTm9ybWFuZGllMQ4wDAYDVQQHEwVSb3Vl
bjETMBEGA1UEChMKY2hyb25vZnJlZTETMBEGA1UECxMKQ2hyb25vRnJlZTEWMBQG
A1UEAxMNY2hyb25vZnJlZSBDQTENMAsGA1UEKRMER3JlZzElMCMGCSqGSIb3DQEJ
ARYWZ3JlZ29yeS5icmFuY3FAZnJlZS5mcoIJAIoqp3ee4Ao3MBMGA1UdJQQMMAoG
CCsGAQUFBwMBMAsGA1UdDwQEAwIFoDATBgNVHREEDDAKgghWUE5fSG9tZTANBgkq
hkiG9w0BAQsFAAOCAQEAbDS2OUW7xSCaI7isdR6IFJvBrsNxLdeDbPH2lgrocUpw
/i8i6iQfOwNpQBRN5vJ0cUrQDBTX5jwdvKf8jCj6OXIcZSTCSRNwAYZd/hGmIf2e
lviVa1x6seuEU/PGh3nV7zm7f1T/IdKb+6yIVyv4ljDU274nlfCzJKmR9kkrIBpL
2DClVfvK05Mx/QjziuxgStKAI12U5CI5Zp+HtTFrPPvGC3g+o1xC7lI14Tde1oEw
5sBr8RvSMIqfm1p+oYuhyhp5LmarXyBSCldMTH6z59LQ6nHWLC8IKcdNFrWbXl+c
23hTMBMDny/+BiXsUu3uXpHcU10kIapinj2gFGcWzQ==
-----END CERTIFICATE-----
